target datalayout = "e-m:e-p270:32:32-p271:32:32-p272:64:64-i64:64-i128:128-f80:128-n8:16:32:64-S128"
target triple = "x86_64-pc-linux-gnu"

%union.pthread_mutex_t = type { %struct.__pthread_mutex_s }
%struct.__pthread_mutex_s = type { i32, i32, i32, i32, i32, i16, i16, %struct.__pthread_internal_list }
%struct.__pthread_internal_list = type { ptr, ptr }
%union.pthread_cond_t = type { %struct.__pthread_cond_s }
%struct.__pthread_cond_s = type { %union.__atomic_wide_counter, %union.__atomic_wide_counter, [2 x i32], [2 x i32], i32, i32, [2 x i32] }
%union.__atomic_wide_counter = type { i64 }
%struct.anon.1 = type { i32 }
%struct.anon.3 = type { i32, ptr, [0 x ptr] }
%struct.__va_list_tag = type { i32, i32, ptr, ptr }

@bio_mutex = internal global [3 x %union.pthread_mutex_t] zeroinitializer, align 16
@bio_newjob_cond = internal global [3 x %union.pthread_cond_t] zeroinitializer, align 16
@bio_jobs = internal global [3 x ptr] zeroinitializer, align 16
@bio_job_to_worker = internal global [7 x i32] [i32 0, i32 1, i32 2, i32 1, i32 0, i32 1, i32 2], align 16
@bio_jobs_counter = internal global [7 x i64] zeroinitializer, align 16

; Function Attrs: nounwind uwtable
define dso_local void @bioSubmitJob(i32 noundef %0, ptr noundef %1) #0 {
  %3 = alloca i32, align 4
  %4 = alloca ptr, align 8
  %5 = alloca i64, align 8
  store i32 %0, ptr %3, align 4, !tbaa !42
  store ptr %1, ptr %4, align 8, !tbaa !65
  %6 = load i32, ptr %3, align 4, !tbaa !42
  %7 = load ptr, ptr %4, align 8, !tbaa !65
  %8 = getelementptr inbounds nuw %struct.anon.1, ptr %7, i32 0, i32 0
  store i32 %6, ptr %8, align 8, !tbaa !67
  call void @llvm.lifetime.start.p0(i64 8, ptr %5) #9
  %9 = load i32, ptr %3, align 4, !tbaa !42
  %10 = sext i32 %9 to i64
  %11 = getelementptr inbounds [7 x i32], ptr @bio_job_to_worker, i64 0, i64 %10
  %12 = load i32, ptr %11, align 4, !tbaa !42
  %13 = zext i32 %12 to i64
  store i64 %13, ptr %5, align 8, !tbaa !5
  %14 = load i64, ptr %5, align 8, !tbaa !5
  %15 = getelementptr inbounds nuw [3 x %union.pthread_mutex_t], ptr @bio_mutex, i64 0, i64 %14
  %16 = call i32 @pthread_mutex_lock(ptr noundef %15) #9
  %17 = load i64, ptr %5, align 8, !tbaa !5
  %18 = getelementptr inbounds nuw [3 x ptr], ptr @bio_jobs, i64 0, i64 %17
  %19 = load ptr, ptr %18, align 8, !tbaa !9
  %20 = load ptr, ptr %4, align 8, !tbaa !65
  %21 = call ptr @listAddNodeTail(ptr noundef %19, ptr noundef %20)
  %22 = load i32, ptr %3, align 4, !tbaa !42
  %23 = sext i32 %22 to i64
  %24 = getelementptr inbounds [7 x i64], ptr @bio_jobs_counter, i64 0, i64 %23
  %25 = load i64, ptr %24, align 8, !tbaa !5
  %26 = add i64 %25, 1
  store i64 %26, ptr %24, align 8, !tbaa !5
  %27 = load i64, ptr %5, align 8, !tbaa !5
  %28 = getelementptr inbounds nuw [3 x %union.pthread_cond_t], ptr @bio_newjob_cond, i64 0, i64 %27
  %29 = call i32 @pthread_cond_signal(ptr noundef %28) #9
  %30 = load i64, ptr %5, align 8, !tbaa !5
  %31 = getelementptr inbounds nuw [3 x %union.pthread_mutex_t], ptr @bio_mutex, i64 0, i64 %30
  %32 = call i32 @pthread_mutex_unlock(ptr noundef %31) #9
  call void @llvm.lifetime.end.p0(i64 8, ptr %5) #9
  ret void
}

; Function Attrs: nounwind uwtable
define dso_local void @bioCreateLazyFreeJob(ptr noundef %0, i32 noundef %1, ...) #0 {
  %3 = alloca ptr, align 8
  %4 = alloca i32, align 4
  %5 = alloca [1 x %struct.__va_list_tag], align 16
  %6 = alloca ptr, align 8
  %7 = alloca i32, align 4
  store ptr %0, ptr %3, align 8, !tbaa !45
  store i32 %1, ptr %4, align 4, !tbaa !42
  call void @llvm.lifetime.start.p0(i64 24, ptr %5) #9
  call void @llvm.lifetime.start.p0(i64 8, ptr %6) #9
  %8 = load i32, ptr %4, align 4, !tbaa !42
  %9 = sext i32 %8 to i64
  %10 = mul i64 8, %9
  %11 = add i64 32, %10
  %12 = call noalias ptr @zmalloc(i64 noundef %11) #12
  store ptr %12, ptr %6, align 8, !tbaa !65
  %13 = load ptr, ptr %3, align 8, !tbaa !45
  %14 = load ptr, ptr %6, align 8, !tbaa !65
  %15 = getelementptr inbounds nuw %struct.anon.3, ptr %14, i32 0, i32 1
  store ptr %13, ptr %15, align 8, !tbaa !67
  %16 = getelementptr inbounds [1 x %struct.__va_list_tag], ptr %5, i64 0, i64 0
  call void @llvm.va_start.p0(ptr %16)
  call void @llvm.lifetime.start.p0(i64 4, ptr %7) #9
  store i32 0, ptr %7, align 4, !tbaa !42
  br label %17

17:                                               ; preds = %44, %2
  %18 = load i32, ptr %7, align 4, !tbaa !42
  %19 = load i32, ptr %4, align 4, !tbaa !42
  %20 = icmp slt i32 %18, %19
  br i1 %20, label %22, label %21

21:                                               ; preds = %17
  call void @llvm.lifetime.end.p0(i64 4, ptr %7) #9
  br label %47

22:                                               ; preds = %17
  %23 = getelementptr inbounds [1 x %struct.__va_list_tag], ptr %5, i64 0, i64 0
  %24 = getelementptr inbounds nuw %struct.__va_list_tag, ptr %23, i32 0, i32 0
  %25 = load i32, ptr %24, align 16
  %26 = icmp ule i32 %25, 40
  br i1 %26, label %27, label %32

27:                                               ; preds = %22
  %28 = getelementptr inbounds nuw %struct.__va_list_tag, ptr %23, i32 0, i32 3
  %29 = load ptr, ptr %28, align 16
  %30 = getelementptr i8, ptr %29, i32 %25
  %31 = add i32 %25, 8
  store i32 %31, ptr %24, align 16
  br label %36

32:                                               ; preds = %22
  %33 = getelementptr inbounds nuw %struct.__va_list_tag, ptr %23, i32 0, i32 2
  %34 = load ptr, ptr %33, align 8
  %35 = getelementptr i8, ptr %34, i32 8
  store ptr %35, ptr %33, align 8
  br label %36

36:                                               ; preds = %32, %27
  %37 = phi ptr [ %30, %27 ], [ %34, %32 ]
  %38 = load ptr, ptr %37, align 8, !tbaa !45
  %39 = load ptr, ptr %6, align 8, !tbaa !65
  %40 = getelementptr inbounds nuw %struct.anon.3, ptr %39, i32 0, i32 2
  %41 = load i32, ptr %7, align 4, !tbaa !42
  %42 = sext i32 %41 to i64
  %43 = getelementptr inbounds [0 x ptr], ptr %40, i64 0, i64 %42
  store ptr %38, ptr %43, align 8, !tbaa !67
  br label %44

44:                                               ; preds = %36
  %45 = load i32, ptr %7, align 4, !tbaa !42
  %46 = add nsw i32 %45, 1
  store i32 %46, ptr %7, align 4, !tbaa !42
  br label %17, !llvm.loop !69

47:                                               ; preds = %21
  %48 = getelementptr inbounds [1 x %struct.__va_list_tag], ptr %5, i64 0, i64 0
  call void @llvm.va_end.p0(ptr %48)
  %49 = load ptr, ptr %6, align 8, !tbaa !65
  call void @bioSubmitJob(i32 noundef 2, ptr noundef %49)
  call void @llvm.lifetime.end.p0(i64 8, ptr %6) #9
  call void @llvm.lifetime.end.p0(i64 24, ptr %5) #9
  ret void
}