; Function Attrs: nounwind uwtable
define dso_local void @bioCreateLazyFreeJob(ptr noundef %0, i32 noundef %1, ...) local_unnamed_addr #0 {
  %3 = alloca [1 x %struct.__va_list_tag], align 16
  call void @llvm.lifetime.start.p0(i64 24, ptr nonnull %3) #11
  %4 = sext i32 %1 to i64
  %5 = shl nsw i64 %4, 3
  %6 = add nsw i64 %5, 32
  %7 = tail call noalias ptr @zmalloc(i64 noundef %6) #15
  %8 = getelementptr inbounds nuw i8, ptr %7, i64 8
  store ptr %0, ptr %8, align 8, !tbaa !61
  call void @llvm.va_start.p0(ptr nonnull %3)
  %9 = icmp sgt i32 %1, 0
  br i1 %9, label %.lr.ph, label %._crit_edge

.lr.ph:                                           ; preds = %2
  %.promoted = load i32, ptr %3, align 16
  %10 = getelementptr inbounds nuw i8, ptr %3, i64 8
  %11 = getelementptr inbounds nuw i8, ptr %3, i64 16
  %12 = load ptr, ptr %11, align 16
  %13 = getelementptr inbounds nuw i8, ptr %7, i64 16
  %.promoted10 = load ptr, ptr %10, align 8
  %wide.trip.count = zext nneg i32 %1 to i64
  br label %21

._crit_edge:                                      ; preds = %31, %2
  call void @llvm.va_end.p0(ptr nonnull %3)
  store i32 2, ptr %7, align 8, !tbaa !61
  %14 = call i32 @pthread_mutex_lock(ptr noundef nonnull getelementptr inbounds nuw (i8, ptr @bio_mutex, i64 80)) #11
  %15 = load ptr, ptr getelementptr inbounds nuw (i8, ptr @bio_jobs, i64 16), align 16, !tbaa !5
  %16 = call ptr @listAddNodeTail(ptr noundef %15, ptr noundef nonnull %7) #11
  %17 = load i64, ptr getelementptr inbounds nuw (i8, ptr @bio_jobs_counter, i64 16), align 16, !tbaa !43
  %18 = add i64 %17, 1
  store i64 %18, ptr getelementptr inbounds nuw (i8, ptr @bio_jobs_counter, i64 16), align 16, !tbaa !43
  %19 = call i32 @pthread_cond_signal(ptr noundef nonnull getelementptr inbounds nuw (i8, ptr @bio_newjob_cond, i64 96)) #11
  %20 = call i32 @pthread_mutex_unlock(ptr noundef nonnull getelementptr inbounds nuw (i8, ptr @bio_mutex, i64 80)) #11
  call void @llvm.lifetime.end.p0(i64 24, ptr nonnull %3) #11
  ret void

21:                                               ; preds = %.lr.ph, %31
  %indvars.iv = phi i64 [ 0, %.lr.ph ], [ %indvars.iv.next, %31 ]
  %22 = phi ptr [ %.promoted10, %.lr.ph ], [ %32, %31 ]
  %23 = phi i32 [ %.promoted, %.lr.ph ], [ %33, %31 ]
  %24 = icmp ult i32 %23, 41
  br i1 %24, label %25, label %29

25:                                               ; preds = %21
  %26 = zext nneg i32 %23 to i64
  %27 = getelementptr i8, ptr %12, i64 %26
  %28 = add nuw nsw i32 %23, 8
  store i32 %28, ptr %3, align 16
  br label %31

29:                                               ; preds = %21
  %30 = getelementptr i8, ptr %22, i64 8
  store ptr %30, ptr %10, align 8
  br label %31

31:                                               ; preds = %29, %25
  %32 = phi ptr [ %22, %25 ], [ %30, %29 ]
  %33 = phi i32 [ %28, %25 ], [ %23, %29 ]
  %34 = phi ptr [ %27, %25 ], [ %22, %29 ]
  %35 = load ptr, ptr %34, align 8, !tbaa !62
  %36 = getelementptr inbounds nuw [0 x ptr], ptr %13, i64 0, i64 %indvars.iv
  store ptr %35, ptr %36, align 8, !tbaa !61
  %indvars.iv.next = add nuw nsw i64 %indvars.iv, 1
  %exitcond.not = icmp eq i64 %indvars.iv.next, %wide.trip.count
  br i1 %exitcond.not, label %._crit_edge, label %21, !llvm.loop !63
}